target datalayout = "e-m:e-p270:32:32-p271:32:32-p272:64:64-i64:64-i128:128-f80:128-n8:16:32:64-S128"
target triple = "x86_64-pc-linux-gnu"

%"class.folly::AsyncUDPSocket" = type { %"class.folly::EventHandler", i16, ptr, ptr, %"class.folly::SocketAddress", %"struct.folly::NetworkSocket", i32, %"class.folly::SocketAddress", %"class.folly::SocketAddress", i8, i8, i8, i8, i8, i8, i32, i32, i32, %"class.folly::Optional.13", %"class.folly::Optional.13", %"class.folly::Optional.15", %"class.folly::Optional.13", ptr, i8, i8, i64, i64, i32, %"class.std::unordered_map", %"class.folly::Function", %"class.std::map", %"class.std::map", ptr, %"class.std::map.26", [8 x i8], %"class.folly::Function.31", %"class.folly::netops::DispatcherContainer" }
%"class.folly::EventHandler" = type { ptr, %"class.folly::EventBaseEvent", ptr }
%"class.folly::EventBaseEvent" = type { %struct.event, ptr, ptr, ptr, %"struct.folly::EventCallback" }
%struct.event = type { %struct.event_callback, %union.anon.2, i32, ptr, %union.anon.4, i16, i16, %struct.timeval }
%struct.event_callback = type { %struct.anon, i16, i8, i8, %union.anon.1, ptr }
%struct.anon = type { ptr, ptr }
%union.anon.1 = type { ptr }
%union.anon.2 = type { %struct.anon.3 }
%struct.anon.3 = type { ptr, ptr }
%union.anon.4 = type { %struct.anon.5 }
%struct.anon.5 = type { %struct.anon.6, %struct.timeval }
%struct.anon.6 = type { ptr, ptr }
%struct.timeval = type { i64, i64 }
%"struct.folly::EventCallback" = type { i32, %union.anon.9 }
%union.anon.9 = type { ptr }
%"struct.folly::NetworkSocket" = type { i32 }
%"class.folly::SocketAddress" = type <{ %"union.folly::SocketAddress::AddrStorage", i16, i8, [5 x i8] }>
%"union.folly::SocketAddress::AddrStorage" = type { %"struct.folly::SocketAddress::ExternalUnixAddr", [8 x i8] }
%"struct.folly::SocketAddress::ExternalUnixAddr" = type { ptr, i32 }
%"class.folly::Optional.15" = type { %"struct.folly::Optional<folly::AsyncUDPSocket::TXTime>::StorageTriviallyDestructible" }
%"struct.folly::Optional<folly::AsyncUDPSocket::TXTime>::StorageTriviallyDestructible" = type { %union.anon.16, i8, [3 x i8] }
%union.anon.16 = type { %"struct.folly::AsyncUDPSocket::TXTime" }
%"struct.folly::AsyncUDPSocket::TXTime" = type <{ i32, i8, [3 x i8] }>
%"class.folly::Optional.13" = type { %"struct.folly::Optional<int>::StorageTriviallyDestructible" }
%"struct.folly::Optional<int>::StorageTriviallyDestructible" = type <{ %union.anon.14, i8, [3 x i8] }>
%union.anon.14 = type { i32 }
%"class.std::unordered_map" = type { %"class.std::_Hashtable" }
%"class.std::_Hashtable" = type { ptr, i64, %"struct.std::__detail::_Hash_node_base", i64, %"struct.std::__detail::_Prime_rehash_policy", ptr }
%"struct.std::__detail::_Hash_node_base" = type { ptr }
%"struct.std::__detail::_Prime_rehash_policy" = type { float, i64 }
%"class.folly::Function" = type { %"union.folly::detail::function::Data", ptr, ptr }
%"union.folly::detail::function::Data" = type { %"struct.folly::detail::function::Data::BigTrivialLayout", [24 x i8] }
%"struct.folly::detail::function::Data::BigTrivialLayout" = type { ptr, i64, i64 }
%"class.std::map" = type { %"class.std::_Rb_tree" }
%"class.std::_Rb_tree" = type { %"struct.std::_Rb_tree<folly::SocketOptionKey, std::pair<const folly::SocketOptionKey, int>, std::_Select1st<std::pair<const folly::SocketOptionKey, int>>, std::less<folly::SocketOptionKey>>::_Rb_tree_impl" }
%"struct.std::_Rb_tree<folly::SocketOptionKey, std::pair<const folly::SocketOptionKey, int>, std::_Select1st<std::pair<const folly::SocketOptionKey, int>>, std::less<folly::SocketOptionKey>>::_Rb_tree_impl" = type { [8 x i8], %"struct.std::_Rb_tree_header" }
%"struct.std::_Rb_tree_header" = type { %"struct.std::_Rb_tree_node_base", i64 }
%"struct.std::_Rb_tree_node_base" = type { i32, ptr, ptr, ptr }
%"class.std::map.26" = type { %"class.std::_Rb_tree.27" }
%"class.std::_Rb_tree.27" = type { %"struct.std::_Rb_tree<folly::SocketOptionKey, std::pair<const folly::SocketOptionKey, std::__cxx11::basic_string<char>>, std::_Select1st<std::pair<const folly::SocketOptionKey, std::__cxx11::basic_string<char>>>, std::less<folly::SocketOptionKey>>::_Rb_tree_impl" }
%"struct.std::_Rb_tree<folly::SocketOptionKey, std::pair<const folly::SocketOptionKey, std::__cxx11::basic_string<char>>, std::_Select1st<std::pair<const folly::SocketOptionKey, std::__cxx11::basic_string<char>>>, std::less<folly::SocketOptionKey>>::_Rb_tree_impl" = type { [8 x i8], %"struct.std::_Rb_tree_header" }
%"class.folly::Function.31" = type { %"union.folly::detail::function::Data", ptr, ptr }
%"class.folly::netops::DispatcherContainer" = type { %"class.std::shared_ptr" }
%"class.std::shared_ptr" = type { %"class.std::__shared_ptr" }
%"class.std::__shared_ptr" = type { ptr, %"class.std::__shared_count" }
%"class.std::__shared_count" = type { ptr }

; Function Attrs: mustprogress nounwind uwtable
define void @_ZN5folly14AsyncUDPSocket18failErrMessageReadERKNS_20AsyncSocketExceptionE(ptr noundef nonnull align 16 dereferenceable(768) %0, ptr noundef nonnull align 8 dereferenceable(24) %1) #0 align 2 {
  %3 = alloca ptr, align 8
  %4 = alloca ptr, align 8
  %5 = alloca ptr, align 8
  store ptr %0, ptr %3, align 8, !tbaa !7
  store ptr %1, ptr %4, align 8, !tbaa !373
  %6 = load ptr, ptr %3, align 8
  %7 = getelementptr inbounds nuw %"class.folly::AsyncUDPSocket", ptr %6, i32 0, i32 22
  %8 = load ptr, ptr %7, align 16, !tbaa !159
  %9 = icmp ne ptr %8, null
  br i1 %9, label %10, label %19

10:                                               ; preds = %2
  call void @llvm.lifetime.start.p0(i64 8, ptr %5) #25
  %11 = getelementptr inbounds nuw %"class.folly::AsyncUDPSocket", ptr %6, i32 0, i32 22
  %12 = load ptr, ptr %11, align 16, !tbaa !159
  store ptr %12, ptr %5, align 8, !tbaa !158
  %13 = getelementptr inbounds nuw %"class.folly::AsyncUDPSocket", ptr %6, i32 0, i32 22
  store ptr null, ptr %13, align 16, !tbaa !159
  %14 = load ptr, ptr %5, align 8, !tbaa !158
  %15 = load ptr, ptr %4, align 8, !tbaa !373
  %16 = load ptr, ptr %14, align 8, !tbaa !96
  %17 = getelementptr inbounds ptr, ptr %16, i64 3
  %18 = load ptr, ptr %17, align 8
  call void %18(ptr noundef nonnull align 8 dereferenceable(8) %14, ptr noundef nonnull align 8 dereferenceable(24) %15) #25
  call void @llvm.lifetime.end.p0(i64 8, ptr %5) #25
  br label %19

19:                                               ; preds = %10, %2
  ret void
}