; Function Attrs: mustprogress nounwind uwtable
define void @_ZN5folly14AsyncUDPSocket18failErrMessageReadERKNS_20AsyncSocketExceptionE(ptr noundef nonnull align 16 captures(none) dereferenceable(768) %0, ptr noundef nonnull align 8 dereferenceable(24) %1) local_unnamed_addr #0 align 2 {
  %3 = getelementptr inbounds nuw i8, ptr %0, i64 368
  %4 = load ptr, ptr %3, align 16, !tbaa !171
  %.not = icmp eq ptr %4, null
  br i1 %.not, label %9, label %5

5:                                                ; preds = %2
  store ptr null, ptr %3, align 16, !tbaa !171
  %6 = load ptr, ptr %4, align 8, !tbaa !124
  %7 = getelementptr inbounds nuw i8, ptr %6, i64 24
  %8 = load ptr, ptr %7, align 8
  tail call void %8(ptr noundef nonnull align 8 dereferenceable(8) %4, ptr noundef nonnull align 8 dereferenceable(24) %1) #36
  br label %9

9:                                                ; preds = %5, %2
  ret void
}